target datalayout = "e-m:e-p270:32:32-p271:32:32-p272:64:64-i64:64-i128:128-f80:128-n8:16:32:64-S128"
target triple = "x86_64-pc-linux-gnu"

%class.nmethod = type <{ %class.CodeBlob.base, [2 x i8], i64, i64, ptr, %union.anon, ptr, ptr, ptr, ptr, ptr, ptr, ptr, i16, i16, i32, i32, i32, i32, i32, i32, i32, i16, i16, i16, i16, i16, i16, i32, i32, i32, i32, i32, i8, i8, i8, i8, i8, i8, [2 x i8] }>
%class.CodeBlob.base = type <{ ptr, ptr, ptr, i32, i32, i32, i32, i32, i32, i16, i16, i8, i8 }>
%union.anon = type { ptr }
%class.CodeBlob = type <{ ptr, ptr, ptr, i32, i32, i32, i32, i32, i32, i16, i16, i8, i8, [2 x i8] }>

@.str.116 = private unnamed_addr constant [21 x i8] c"[Instructions begin]\00", align 1
@.str.117 = private unnamed_addr constant [14 x i8] c"[Entry Point]\00", align 1
@.str.118 = private unnamed_addr constant [23 x i8] c"[Verified Entry Point]\00", align 1
@.str.119 = private unnamed_addr constant [24 x i8] c"[Deopt MH Handler Code]\00", align 1
@.str.120 = private unnamed_addr constant [12 x i8] c"[Constants]\00", align 1
@.str.121 = private unnamed_addr constant [12 x i8] c"[Stub Code]\00", align 1
@.str.122 = private unnamed_addr constant [20 x i8] c"[Exception Handler]\00", align 1
@.str.123 = private unnamed_addr constant [21 x i8] c"[Deopt Handler Code]\00", align 1

; Function Attrs: mustprogress nounwind uwtable
define linkonce_odr hidden noundef ptr @_ZNK8CodeBlob13content_beginEv(ptr noundef nonnull align 8 dereferenceable(54) %0) #1 comdat align 2 {
  %2 = alloca ptr, align 8
  store ptr %0, ptr %2, align 8
  %3 = load ptr, ptr %2, align 8
  %4 = call noundef ptr @_ZNK8CodeBlob12header_beginEv(ptr noundef nonnull align 8 dereferenceable(54) %3)
  %5 = getelementptr inbounds %class.CodeBlob, ptr %3, i32 0, i32 5
  %6 = load i32, ptr %5, align 8
  %7 = sext i32 %6 to i64
  %8 = getelementptr inbounds i8, ptr %4, i64 %7
  ret ptr %8
}

; Function Attrs: mustprogress nounwind uwtable
define linkonce_odr hidden noundef ptr @_ZNK8CodeBlob12header_beginEv(ptr noundef nonnull align 8 dereferenceable(54) %0) #1 comdat align 2 {
  %2 = alloca ptr, align 8
  store ptr %0, ptr %2, align 8
  %3 = load ptr, ptr %2, align 8
  ret ptr %3
}

; Function Attrs: mustprogress nounwind uwtable
define linkonce_odr hidden noundef ptr @_ZNK7nmethod19deopt_handler_beginEv(ptr noundef nonnull align 8 dereferenceable(214) %0) #1 comdat align 2 {
  %2 = alloca ptr, align 8
  store ptr %0, ptr %2, align 8
  %3 = load ptr, ptr %2, align 8
  %4 = call noundef ptr @_ZNK8CodeBlob12header_beginEv(ptr noundef nonnull align 8 dereferenceable(54) %3)
  %5 = getelementptr inbounds %class.nmethod, ptr %3, i32 0, i32 20
  %6 = load i32, ptr %5, align 8
  %7 = sext i32 %6 to i64
  %8 = getelementptr inbounds i8, ptr %4, i64 %7
  ret ptr %8
}

; Function Attrs: mustprogress nounwind uwtable
define linkonce_odr hidden noundef ptr @_ZNK7nmethod15exception_beginEv(ptr noundef nonnull align 8 dereferenceable(214) %0) #1 comdat align 2 {
  %2 = alloca ptr, align 8
  store ptr %0, ptr %2, align 8
  %3 = load ptr, ptr %2, align 8
  %4 = call noundef ptr @_ZNK8CodeBlob12header_beginEv(ptr noundef nonnull align 8 dereferenceable(54) %3)
  %5 = getelementptr inbounds %class.nmethod, ptr %3, i32 0, i32 19
  %6 = load i32, ptr %5, align 4
  %7 = sext i32 %6 to i64
  %8 = getelementptr inbounds i8, ptr %4, i64 %7
  ret ptr %8
}

; Function Attrs: mustprogress nounwind uwtable
define linkonce_odr hidden noundef ptr @_ZNK7nmethod10stub_beginEv(ptr noundef nonnull align 8 dereferenceable(214) %0) #1 comdat align 2 {
  %2 = alloca ptr, align 8
  store ptr %0, ptr %2, align 8
  %3 = load ptr, ptr %2, align 8
  %4 = call noundef ptr @_ZNK8CodeBlob12header_beginEv(ptr noundef nonnull align 8 dereferenceable(54) %3)
  %5 = getelementptr inbounds %class.nmethod, ptr %3, i32 0, i32 18
  %6 = load i32, ptr %5, align 8
  %7 = sext i32 %6 to i64
  %8 = getelementptr inbounds i8, ptr %4, i64 %7
  ret ptr %8
}

; Function Attrs: mustprogress nounwind uwtable
define linkonce_odr hidden noundef ptr @_ZNK7nmethod11insts_beginEv(ptr noundef nonnull align 8 dereferenceable(214) %0) #1 comdat align 2 {
  %2 = alloca ptr, align 8
  store ptr %0, ptr %2, align 8
  %3 = load ptr, ptr %2, align 8
  %4 = call noundef ptr @_ZNK8CodeBlob10code_beginEv(ptr noundef nonnull align 8 dereferenceable(54) %3)
  ret ptr %4
}

; Function Attrs: mustprogress nounwind uwtable
define linkonce_odr hidden noundef ptr @_ZNK7nmethod12consts_beginEv(ptr noundef nonnull align 8 dereferenceable(214) %0) #1 comdat align 2 {
  %2 = alloca ptr, align 8
  store ptr %0, ptr %2, align 8
  %3 = load ptr, ptr %2, align 8
  %4 = call noundef ptr @_ZNK8CodeBlob13content_beginEv(ptr noundef nonnull align 8 dereferenceable(54) %3)
  ret ptr %4
}

; Function Attrs: mustprogress nounwind uwtable
define linkonce_odr hidden noundef ptr @_ZNK7nmethod22deopt_mh_handler_beginEv(ptr noundef nonnull align 8 dereferenceable(214) %0) #1 comdat align 2 {
  %2 = alloca ptr, align 8
  store ptr %0, ptr %2, align 8
  %3 = load ptr, ptr %2, align 8
  %4 = call noundef ptr @_ZNK8CodeBlob12header_beginEv(ptr noundef nonnull align 8 dereferenceable(54) %3)
  %5 = getelementptr inbounds %class.nmethod, ptr %3, i32 0, i32 21
  %6 = load i32, ptr %5, align 4
  %7 = sext i32 %6 to i64
  %8 = getelementptr inbounds i8, ptr %4, i64 %7
  ret ptr %8
}

; Function Attrs: mustprogress nounwind uwtable
define linkonce_odr hidden noundef zeroext i1 @_ZNK7nmethod25has_method_handle_invokesEv(ptr noundef nonnull align 8 dereferenceable(214) %0) #1 comdat align 2 {
  %2 = alloca ptr, align 8
  store ptr %0, ptr %2, align 8
  %3 = load ptr, ptr %2, align 8
  %4 = getelementptr inbounds %class.nmethod, ptr %3, i32 0, i32 37
  %5 = load i8, ptr %4, align 4
  %6 = lshr i8 %5, 1
  %7 = and i8 %6, 1
  %8 = icmp ne i8 %7, 0
  ret i1 %8
}

; Function Attrs: mustprogress nounwind uwtable
define linkonce_odr hidden noundef ptr @_ZNK7nmethod20verified_entry_pointEv(ptr noundef nonnull align 8 dereferenceable(214) %0) #1 comdat align 2 {
  %2 = alloca ptr, align 8
  store ptr %0, ptr %2, align 8
  %3 = load ptr, ptr %2, align 8
  %4 = call noundef ptr @_ZNK8CodeBlob10code_beginEv(ptr noundef nonnull align 8 dereferenceable(54) %3)
  %5 = getelementptr inbounds %class.nmethod, ptr %3, i32 0, i32 14
  %6 = load i16, ptr %5, align 2
  %7 = zext i16 %6 to i32
  %8 = sext i32 %7 to i64
  %9 = getelementptr inbounds i8, ptr %4, i64 %8
  ret ptr %9
}

; Function Attrs: mustprogress nounwind uwtable
define linkonce_odr hidden noundef ptr @_ZNK7nmethod11entry_pointEv(ptr noundef nonnull align 8 dereferenceable(214) %0) #1 comdat align 2 {
  %2 = alloca ptr, align 8
  store ptr %0, ptr %2, align 8
  %3 = load ptr, ptr %2, align 8
  %4 = call noundef ptr @_ZNK8CodeBlob10code_beginEv(ptr noundef nonnull align 8 dereferenceable(54) %3)
  %5 = getelementptr inbounds %class.nmethod, ptr %3, i32 0, i32 13
  %6 = load i16, ptr %5, align 8
  %7 = zext i16 %6 to i32
  %8 = sext i32 %7 to i64
  %9 = getelementptr inbounds i8, ptr %4, i64 %8
  ret ptr %9
}

; Function Attrs: mustprogress nounwind uwtable
define linkonce_odr hidden noundef ptr @_ZNK8CodeBlob10code_beginEv(ptr noundef nonnull align 8 dereferenceable(54) %0) #1 comdat align 2 {
  %2 = alloca ptr, align 8
  store ptr %0, ptr %2, align 8
  %3 = load ptr, ptr %2, align 8
  %4 = call noundef ptr @_ZNK8CodeBlob12header_beginEv(ptr noundef nonnull align 8 dereferenceable(54) %3)
  %5 = getelementptr inbounds %class.CodeBlob, ptr %3, i32 0, i32 6
  %6 = load i32, ptr %5, align 4
  %7 = sext i32 %6 to i64
  %8 = getelementptr inbounds i8, ptr %4, i64 %7
  ret ptr %8
}

; Function Attrs: mustprogress nounwind uwtable
define hidden noundef ptr @_ZNK7nmethod21nmethod_section_labelEPh(ptr noundef nonnull align 8 dereferenceable(214) %0, ptr noundef %1) #1 align 2 {
  %3 = alloca ptr, align 8
  %4 = alloca ptr, align 8
  %5 = alloca ptr, align 8
  store ptr %0, ptr %3, align 8
  store ptr %1, ptr %4, align 8
  %6 = load ptr, ptr %3, align 8
  store ptr null, ptr %5, align 8
  %7 = load ptr, ptr %4, align 8
  %8 = call noundef ptr @_ZNK8CodeBlob10code_beginEv(ptr noundef nonnull align 8 dereferenceable(54) %6)
  %9 = icmp eq ptr %7, %8
  br i1 %9, label %10, label %11

10:                                               ; preds = %2
  store ptr @.str.116, ptr %5, align 8
  br label %11

11:                                               ; preds = %10, %2
  %12 = load ptr, ptr %4, align 8
  %13 = call noundef ptr @_ZNK7nmethod11entry_pointEv(ptr noundef nonnull align 8 dereferenceable(214) %6)
  %14 = icmp eq ptr %12, %13
  br i1 %14, label %15, label %16

15:                                               ; preds = %11
  store ptr @.str.117, ptr %5, align 8
  br label %16

16:                                               ; preds = %15, %11
  %17 = load ptr, ptr %4, align 8
  %18 = call noundef ptr @_ZNK7nmethod20verified_entry_pointEv(ptr noundef nonnull align 8 dereferenceable(214) %6)
  %19 = icmp eq ptr %17, %18
  br i1 %19, label %20, label %21

20:                                               ; preds = %16
  store ptr @.str.118, ptr %5, align 8
  br label %21

21:                                               ; preds = %20, %16
  %22 = call noundef zeroext i1 @_ZNK7nmethod25has_method_handle_invokesEv(ptr noundef nonnull align 8 dereferenceable(214) %6)
  br i1 %22, label %23, label %28

23:                                               ; preds = %21
  %24 = load ptr, ptr %4, align 8
  %25 = call noundef ptr @_ZNK7nmethod22deopt_mh_handler_beginEv(ptr noundef nonnull align 8 dereferenceable(214) %6)
  %26 = icmp eq ptr %24, %25
  br i1 %26, label %27, label %28

27:                                               ; preds = %23
  store ptr @.str.119, ptr %5, align 8
  br label %28

28:                                               ; preds = %27, %23, %21
  %29 = load ptr, ptr %4, align 8
  %30 = call noundef ptr @_ZNK7nmethod12consts_beginEv(ptr noundef nonnull align 8 dereferenceable(214) %6)
  %31 = icmp eq ptr %29, %30
  br i1 %31, label %32, label %37

32:                                               ; preds = %28
  %33 = load ptr, ptr %4, align 8
  %34 = call noundef ptr @_ZNK7nmethod11insts_beginEv(ptr noundef nonnull align 8 dereferenceable(214) %6)
  %35 = icmp ne ptr %33, %34
  br i1 %35, label %36, label %37

36:                                               ; preds = %32
  store ptr @.str.120, ptr %5, align 8
  br label %37

37:                                               ; preds = %36, %32, %28
  %38 = load ptr, ptr %4, align 8
  %39 = call noundef ptr @_ZNK7nmethod10stub_beginEv(ptr noundef nonnull align 8 dereferenceable(214) %6)
  %40 = icmp eq ptr %38, %39
  br i1 %40, label %41, label %42

41:                                               ; preds = %37
  store ptr @.str.121, ptr %5, align 8
  br label %42

42:                                               ; preds = %41, %37
  %43 = getelementptr inbounds %class.nmethod, ptr %6, i32 0, i32 19
  %44 = load i32, ptr %43, align 4
  %45 = icmp sge i32 %44, 0
  br i1 %45, label %46, label %51

46:                                               ; preds = %42
  %47 = load ptr, ptr %4, align 8
  %48 = call noundef ptr @_ZNK7nmethod15exception_beginEv(ptr noundef nonnull align 8 dereferenceable(214) %6)
  %49 = icmp eq ptr %47, %48
  br i1 %49, label %50, label %51

50:                                               ; preds = %46
  store ptr @.str.122, ptr %5, align 8
  br label %51

51:                                               ; preds = %50, %46, %42
  %52 = getelementptr inbounds %class.nmethod, ptr %6, i32 0, i32 20
  %53 = load i32, ptr %52, align 8
  %54 = icmp ne i32 %53, -1
  br i1 %54, label %55, label %60

55:                                               ; preds = %51
  %56 = load ptr, ptr %4, align 8
  %57 = call noundef ptr @_ZNK7nmethod19deopt_handler_beginEv(ptr noundef nonnull align 8 dereferenceable(214) %6)
  %58 = icmp eq ptr %56, %57
  br i1 %58, label %59, label %60

59:                                               ; preds = %55
  store ptr @.str.123, ptr %5, align 8
  br label %60

60:                                               ; preds = %59, %55, %51
  %61 = load ptr, ptr %5, align 8
  ret ptr %61
}