; Function Attrs: mustprogress nofree norecurse nosync nounwind willreturn memory(argmem: read) uwtable
define hidden noundef ptr @_ZNK7nmethod21nmethod_section_labelEPh(ptr noundef nonnull readonly align 8 dereferenceable(214) %0, ptr noundef readnone %1) local_unnamed_addr #8 align 2 {
  %3 = getelementptr inbounds i8, ptr %0, i64 36
  %4 = load i32, ptr %3, align 4
  %5 = sext i32 %4 to i64
  %6 = getelementptr inbounds i8, ptr %0, i64 %5
  %7 = icmp eq ptr %6, %1
  %spec.select = select i1 %7, ptr @.str.116, ptr null
  %8 = getelementptr inbounds i8, ptr %0, i64 144
  %9 = load i16, ptr %8, align 8
  %10 = zext i16 %9 to i64
  %11 = getelementptr inbounds i8, ptr %6, i64 %10
  %12 = icmp eq ptr %11, %1
  %.1 = select i1 %12, ptr @.str.117, ptr %spec.select
  %13 = getelementptr inbounds i8, ptr %0, i64 146
  %14 = load i16, ptr %13, align 2
  %15 = zext i16 %14 to i64
  %16 = getelementptr inbounds i8, ptr %6, i64 %15
  %17 = icmp eq ptr %16, %1
  %.2 = select i1 %17, ptr @.str.118, ptr %.1
  %18 = getelementptr inbounds i8, ptr %0, i64 212
  %19 = load i8, ptr %18, align 4
  %20 = and i8 %19, 2
  %.not = icmp eq i8 %20, 0
  %21 = getelementptr inbounds i8, ptr %0, i64 172
  %22 = load i32, ptr %21, align 4
  %23 = sext i32 %22 to i64
  %24 = getelementptr inbounds i8, ptr %0, i64 %23
  %25 = icmp eq ptr %24, %1
  %spec.select13 = select i1 %25, ptr @.str.119, ptr %.2
  %.3 = select i1 %.not, ptr %.2, ptr %spec.select13
  %26 = getelementptr inbounds i8, ptr %0, i64 32
  %27 = load i32, ptr %26, align 8
  %28 = sext i32 %27 to i64
  %29 = getelementptr inbounds i8, ptr %0, i64 %28
  %30 = icmp eq ptr %29, %1
  %spec.select14 = select i1 %7, ptr %.3, ptr @.str.120
  %.4 = select i1 %30, ptr %spec.select14, ptr %.3
  %31 = getelementptr inbounds i8, ptr %0, i64 160
  %32 = load i32, ptr %31, align 8
  %33 = sext i32 %32 to i64
  %34 = getelementptr inbounds i8, ptr %0, i64 %33
  %35 = icmp eq ptr %34, %1
  %spec.select15 = select i1 %35, ptr @.str.121, ptr %.4
  %36 = getelementptr inbounds i8, ptr %0, i64 164
  %37 = load i32, ptr %36, align 4
  %38 = zext nneg i32 %37 to i64
  %39 = getelementptr inbounds i8, ptr %0, i64 %38
  %40 = icmp eq ptr %39, %1
  %spec.select16 = select i1 %40, ptr @.str.122, ptr %spec.select15
  %41 = icmp slt i32 %37, 0
  %.6 = select i1 %41, ptr %spec.select15, ptr %spec.select16
  %42 = getelementptr inbounds i8, ptr %0, i64 168
  %43 = load i32, ptr %42, align 8
  %.not12 = icmp eq i32 %43, -1
  %44 = sext i32 %43 to i64
  %45 = getelementptr inbounds i8, ptr %0, i64 %44
  %46 = icmp eq ptr %45, %1
  %spec.select17 = select i1 %46, ptr @.str.123, ptr %.6
  %.7 = select i1 %.not12, ptr %.6, ptr %spec.select17
  ret ptr %.7
}